target datalayout = "e-m:e-p270:32:32-p271:32:32-p272:64:64-i64:64-i128:128-f80:128-n8:16:32:64-S128"
target triple = "x86_64-pc-linux-gnu"

%struct.Trigger = type { i32, ptr, i32, i16, i8, i8, i8, i32, i32, i32, i8, i8, i16, i16, ptr, ptr, ptr, ptr, ptr }
%struct.TriggerDesc = type { ptr, i32, i8, i8, i8, i8, i8, i8, i8, i8, i8, i8, i8, i8, i8, i8, i8, i8, i8, i8, i8, i8, i8 }
%struct.TriggerData = type { i32, i32, ptr, ptr, ptr, ptr, ptr, ptr, ptr, ptr, ptr }
%struct.ResultRelInfo = type { i32, i32, ptr, i32, ptr, ptr, i16, ptr, i8, ptr, ptr, ptr, i8, i8, ptr, ptr, ptr, ptr, ptr, ptr, ptr, ptr, ptr, ptr, i8, i32, i32, i32, ptr, ptr, ptr, ptr, ptr, ptr, ptr, i32, i32, ptr, ptr, ptr, ptr, [3 x ptr], ptr, ptr, ptr, i8, ptr, i8, ptr, ptr, ptr, ptr }
%struct.EState = type { i32, i32, ptr, ptr, ptr, i32, ptr, ptr, ptr, ptr, ptr, ptr, ptr, ptr, ptr, ptr, i32, ptr, ptr, ptr, ptr, ptr, ptr, ptr, ptr, ptr, ptr, i64, i64, i32, i32, i8, ptr, ptr, ptr, ptr, ptr, i8, i32, i32, ptr, i32, ptr, ptr, ptr, ptr }
%struct.ExprContext = type { i32, ptr, ptr, ptr, ptr, ptr, ptr, ptr, ptr, ptr, i64, i8, i64, i8, ptr, ptr, ptr, ptr }

; Function Attrs: nounwind uwtable
define dso_local zeroext i1 @ExecIRInsertTriggers(ptr noundef %0, ptr noundef %1, ptr noundef %2) #0 {
  %4 = alloca i1, align 1
  %5 = alloca ptr, align 8
  %6 = alloca ptr, align 8
  %7 = alloca ptr, align 8
  %8 = alloca ptr, align 8
  %9 = alloca ptr, align 8
  %10 = alloca i8, align 1
  %11 = alloca %struct.TriggerData, align 8
  %12 = alloca i32, align 4
  %13 = alloca ptr, align 8
  %14 = alloca ptr, align 8
  %15 = alloca i32, align 4
  store ptr %0, ptr %5, align 8
  store ptr %1, ptr %6, align 8
  store ptr %2, ptr %7, align 8
  call void @llvm.lifetime.start.p0(i64 8, ptr %8) #12
  %16 = load ptr, ptr %6, align 8
  %17 = getelementptr inbounds nuw %struct.ResultRelInfo, ptr %16, i32 0, i32 14
  %18 = load ptr, ptr %17, align 8
  store ptr %18, ptr %8, align 8
  call void @llvm.lifetime.start.p0(i64 8, ptr %9) #12
  store ptr null, ptr %9, align 8
  call void @llvm.lifetime.start.p0(i64 1, ptr %10) #12
  call void @llvm.lifetime.start.p0(i64 80, ptr %11) #12
  call void @llvm.memset.p0.i64(ptr align 8 %11, i8 0, i64 80, i1 false)
  call void @llvm.lifetime.start.p0(i64 4, ptr %12) #12
  %19 = getelementptr inbounds nuw %struct.TriggerData, ptr %11, i32 0, i32 0
  store i32 441, ptr %19, align 8
  %20 = getelementptr inbounds nuw %struct.TriggerData, ptr %11, i32 0, i32 1
  store i32 20, ptr %20, align 4
  %21 = load ptr, ptr %6, align 8
  %22 = getelementptr inbounds nuw %struct.ResultRelInfo, ptr %21, i32 0, i32 2
  %23 = load ptr, ptr %22, align 8
  %24 = getelementptr inbounds nuw %struct.TriggerData, ptr %11, i32 0, i32 2
  store ptr %23, ptr %24, align 8
  store i32 0, ptr %12, align 4
  br label %25

25:                                               ; preds = %115, %3
  %26 = load i32, ptr %12, align 4
  %27 = load ptr, ptr %8, align 8
  %28 = getelementptr inbounds nuw %struct.TriggerDesc, ptr %27, i32 0, i32 1
  %29 = load i32, ptr %28, align 8
  %30 = icmp slt i32 %26, %29
  br i1 %30, label %31, label %118

31:                                               ; preds = %25
  call void @llvm.lifetime.start.p0(i64 8, ptr %13) #12
  %32 = load ptr, ptr %8, align 8
  %33 = getelementptr inbounds nuw %struct.TriggerDesc, ptr %32, i32 0, i32 0
  %34 = load ptr, ptr %33, align 8
  %35 = load i32, ptr %12, align 4
  %36 = sext i32 %35 to i64
  %37 = getelementptr inbounds %struct.Trigger, ptr %34, i64 %36
  store ptr %37, ptr %13, align 8
  call void @llvm.lifetime.start.p0(i64 8, ptr %14) #12
  %38 = load ptr, ptr %13, align 8
  %39 = getelementptr inbounds nuw %struct.Trigger, ptr %38, i32 0, i32 3
  %40 = load i16, ptr %39, align 4
  %41 = sext i16 %40 to i32
  %42 = and i32 %41, 71
  %43 = icmp eq i32 %42, 69
  br i1 %43, label %45, label %44

44:                                               ; preds = %31
  store i32 4, ptr %15, align 4
  br label %112

45:                                               ; preds = %31
  %46 = load ptr, ptr %5, align 8
  %47 = load ptr, ptr %6, align 8
  %48 = load ptr, ptr %13, align 8
  %49 = getelementptr inbounds nuw %struct.TriggerData, ptr %11, i32 0, i32 1
  %50 = load i32, ptr %49, align 4
  %51 = load ptr, ptr %7, align 8
  %52 = call zeroext i1 @TriggerEnabled(ptr noundef %46, ptr noundef %47, ptr noundef %48, i32 noundef %50, ptr noundef null, ptr noundef null, ptr noundef %51)
  br i1 %52, label %54, label %53

53:                                               ; preds = %45
  store i32 4, ptr %15, align 4
  br label %112

54:                                               ; preds = %45
  %55 = load ptr, ptr %9, align 8
  %56 = icmp ne ptr %55, null
  br i1 %56, label %60, label %57

57:                                               ; preds = %54
  %58 = load ptr, ptr %7, align 8
  %59 = call ptr @ExecFetchSlotHeapTuple(ptr noundef %58, i1 noundef zeroext true, ptr noundef %10)
  store ptr %59, ptr %9, align 8
  br label %60

60:                                               ; preds = %57, %54
  %61 = load ptr, ptr %7, align 8
  %62 = getelementptr inbounds nuw %struct.TriggerData, ptr %11, i32 0, i32 6
  store ptr %61, ptr %62, align 8
  %63 = load ptr, ptr %9, align 8
  store ptr %63, ptr %14, align 8
  %64 = getelementptr inbounds nuw %struct.TriggerData, ptr %11, i32 0, i32 3
  store ptr %63, ptr %64, align 8
  %65 = load ptr, ptr %13, align 8
  %66 = getelementptr inbounds nuw %struct.TriggerData, ptr %11, i32 0, i32 5
  store ptr %65, ptr %66, align 8
  %67 = load i32, ptr %12, align 4
  %68 = load ptr, ptr %6, align 8
  %69 = getelementptr inbounds nuw %struct.ResultRelInfo, ptr %68, i32 0, i32 15
  %70 = load ptr, ptr %69, align 8
  %71 = load ptr, ptr %6, align 8
  %72 = getelementptr inbounds nuw %struct.ResultRelInfo, ptr %71, i32 0, i32 17
  %73 = load ptr, ptr %72, align 8
  %74 = load ptr, ptr %5, align 8
  %75 = getelementptr inbounds nuw %struct.EState, ptr %74, i32 0, i32 35
  %76 = load ptr, ptr %75, align 8
  %77 = icmp ne ptr %76, null
  br i1 %77, label %78, label %82

78:                                               ; preds = %60
  %79 = load ptr, ptr %5, align 8
  %80 = getelementptr inbounds nuw %struct.EState, ptr %79, i32 0, i32 35
  %81 = load ptr, ptr %80, align 8
  br label %85

82:                                               ; preds = %60
  %83 = load ptr, ptr %5, align 8
  %84 = call ptr @MakePerTupleExprContext(ptr noundef %83)
  br label %85

85:                                               ; preds = %82, %78
  %86 = phi ptr [ %81, %78 ], [ %84, %82 ]
  %87 = getelementptr inbounds nuw %struct.ExprContext, ptr %86, i32 0, i32 5
  %88 = load ptr, ptr %87, align 8
  %89 = call ptr @ExecCallTriggerFunc(ptr noundef %11, i32 noundef %67, ptr noundef %70, ptr noundef %73, ptr noundef %88)
  store ptr %89, ptr %9, align 8
  %90 = load ptr, ptr %9, align 8
  %91 = icmp eq ptr %90, null
  br i1 %91, label %92, label %98

92:                                               ; preds = %85
  %93 = load i8, ptr %10, align 1, !range !4, !noundef !5
  %94 = trunc i8 %93 to i1
  br i1 %94, label %95, label %97

95:                                               ; preds = %92
  %96 = load ptr, ptr %14, align 8
  call void @heap_freetuple(ptr noundef %96)
  br label %97

97:                                               ; preds = %95, %92
  store i1 false, ptr %4, align 1
  store i32 1, ptr %15, align 4
  br label %112

98:                                               ; preds = %85
  %99 = load ptr, ptr %9, align 8
  %100 = load ptr, ptr %14, align 8
  %101 = icmp ne ptr %99, %100
  br i1 %101, label %102, label %110

102:                                              ; preds = %98
  %103 = load ptr, ptr %9, align 8
  %104 = load ptr, ptr %7, align 8
  call void @ExecForceStoreHeapTuple(ptr noundef %103, ptr noundef %104, i1 noundef zeroext false)
  %105 = load i8, ptr %10, align 1, !range !4, !noundef !5
  %106 = trunc i8 %105 to i1
  br i1 %106, label %107, label %109

107:                                              ; preds = %102
  %108 = load ptr, ptr %14, align 8
  call void @heap_freetuple(ptr noundef %108)
  br label %109

109:                                              ; preds = %107, %102
  store ptr null, ptr %9, align 8
  br label %110

110:                                              ; preds = %109, %98
  br label %111

111:                                              ; preds = %110
  store i32 0, ptr %15, align 4
  br label %112

112:                                              ; preds = %111, %97, %53, %44
  call void @llvm.lifetime.end.p0(i64 8, ptr %14) #12
  call void @llvm.lifetime.end.p0(i64 8, ptr %13) #12
  %113 = load i32, ptr %15, align 4
  switch i32 %113, label %119 [
    i32 0, label %114
    i32 4, label %115
  ]

114:                                              ; preds = %112
  br label %115

115:                                              ; preds = %114, %112
  %116 = load i32, ptr %12, align 4
  %117 = add i32 %116, 1
  store i32 %117, ptr %12, align 4
  br label %25, !llvm.loop !35

118:                                              ; preds = %25
  store i1 true, ptr %4, align 1
  store i32 1, ptr %15, align 4
  br label %119

119:                                              ; preds = %118, %112
  call void @llvm.lifetime.end.p0(i64 4, ptr %12) #12
  call void @llvm.lifetime.end.p0(i64 80, ptr %11) #12
  call void @llvm.lifetime.end.p0(i64 1, ptr %10) #12
  call void @llvm.lifetime.end.p0(i64 8, ptr %9) #12
  call void @llvm.lifetime.end.p0(i64 8, ptr %8) #12
  %120 = load i1, ptr %4, align 1
  ret i1 %120
}