; Function Attrs: nounwind uwtable
define dso_local noundef zeroext i1 @ExecIRInsertTriggers(ptr noundef %0, ptr noundef readonly captures(none) %1, ptr noundef %2) local_unnamed_addr #0 {
  %4 = alloca i8, align 1
  %5 = alloca %struct.TriggerData, align 8
  %6 = getelementptr inbounds nuw i8, ptr %1, i64 96
  %7 = load ptr, ptr %6, align 8
  call void @llvm.lifetime.start.p0(i64 1, ptr nonnull %4) #16
  call void @llvm.lifetime.start.p0(i64 80, ptr nonnull %5) #16
  %8 = getelementptr inbounds nuw i8, ptr %5, i64 16
  call void @llvm.memset.p0.i64(ptr noundef nonnull align 8 dereferenceable(80) %8, i8 0, i64 64, i1 false)
  store i32 441, ptr %5, align 8
  %9 = getelementptr inbounds nuw i8, ptr %5, i64 4
  store i32 20, ptr %9, align 4
  %10 = getelementptr inbounds nuw i8, ptr %1, i64 8
  %11 = load ptr, ptr %10, align 8
  %12 = getelementptr inbounds nuw i8, ptr %5, i64 8
  store ptr %11, ptr %12, align 8
  %13 = getelementptr inbounds nuw i8, ptr %7, i64 8
  %14 = load i32, ptr %13, align 8
  %15 = icmp slt i32 %14, 1
  br i1 %15, label %.loopexit, label %.lr.ph

.lr.ph:                                           ; preds = %3
  %16 = getelementptr inbounds nuw i8, ptr %5, i64 40
  %17 = getelementptr inbounds nuw i8, ptr %5, i64 16
  %18 = getelementptr inbounds nuw i8, ptr %5, i64 32
  %19 = getelementptr inbounds nuw i8, ptr %1, i64 104
  %20 = getelementptr inbounds nuw i8, ptr %1, i64 120
  %21 = getelementptr inbounds nuw i8, ptr %0, i64 264
  br label %22

22:                                               ; preds = %.lr.ph, %57
  %indvars.iv = phi i64 [ 0, %.lr.ph ], [ %indvars.iv.next, %57 ]
  %.03246 = phi ptr [ null, %.lr.ph ], [ %.133.ph, %57 ]
  %23 = load ptr, ptr %7, align 8
  %24 = getelementptr inbounds nuw %struct.Trigger, ptr %23, i64 %indvars.iv
  %25 = getelementptr inbounds nuw i8, ptr %24, i64 20
  %26 = load i16, ptr %25, align 4
  %27 = and i16 %26, 71
  %28 = icmp eq i16 %27, 69
  br i1 %28, label %29, label %57

29:                                               ; preds = %22
  %30 = load i32, ptr %9, align 4
  %31 = call fastcc zeroext i1 @TriggerEnabled(ptr noundef %0, ptr noundef %1, ptr noundef nonnull %24, i32 noundef %30, ptr noundef null, ptr noundef null, ptr noundef %2)
  br i1 %31, label %32, label %57

32:                                               ; preds = %29
  %.not = icmp eq ptr %.03246, null
  br i1 %.not, label %33, label %35

33:                                               ; preds = %32
  %34 = call ptr @ExecFetchSlotHeapTuple(ptr noundef %2, i1 noundef zeroext true, ptr noundef nonnull %4) #16
  br label %35

35:                                               ; preds = %33, %32
  %.234 = phi ptr [ %.03246, %32 ], [ %34, %33 ]
  store ptr %2, ptr %16, align 8
  store ptr %.234, ptr %17, align 8
  store ptr %24, ptr %18, align 8
  %36 = load ptr, ptr %19, align 8
  %37 = load ptr, ptr %20, align 8
  %38 = load ptr, ptr %21, align 8
  %.not39 = icmp eq ptr %38, null
  br i1 %.not39, label %39, label %41

39:                                               ; preds = %35
  %40 = call ptr @MakePerTupleExprContext(ptr noundef nonnull %0) #16
  br label %41

41:                                               ; preds = %35, %39
  %42 = phi ptr [ %40, %39 ], [ %38, %35 ]
  %43 = getelementptr inbounds nuw i8, ptr %42, i64 40
  %44 = load ptr, ptr %43, align 8
  %45 = trunc nuw nsw i64 %indvars.iv to i32
  %46 = call fastcc ptr @ExecCallTriggerFunc(ptr noundef %5, i32 noundef %45, ptr noundef %36, ptr noundef %37, ptr noundef %44)
  %47 = icmp eq ptr %46, null
  br i1 %47, label %48, label %52

48:                                               ; preds = %41
  %49 = load i8, ptr %4, align 1, !range !4, !noundef !5
  %50 = trunc nuw i8 %49 to i1
  br i1 %50, label %51, label %.loopexit

51:                                               ; preds = %48
  call void @heap_freetuple(ptr noundef %.234) #16
  br label %.loopexit

52:                                               ; preds = %41
  %.not40 = icmp eq ptr %46, %.234
  br i1 %.not40, label %57, label %53

53:                                               ; preds = %52
  call void @ExecForceStoreHeapTuple(ptr noundef nonnull %46, ptr noundef %2, i1 noundef zeroext false) #16
  %54 = load i8, ptr %4, align 1, !range !4, !noundef !5
  %55 = trunc nuw i8 %54 to i1
  br i1 %55, label %56, label %57

56:                                               ; preds = %53
  call void @heap_freetuple(ptr noundef %.234) #16
  br label %57

57:                                               ; preds = %22, %29, %53, %56, %52
  %.133.ph = phi ptr [ null, %53 ], [ null, %56 ], [ %46, %52 ], [ %.03246, %29 ], [ %.03246, %22 ]
  %indvars.iv.next = add nuw nsw i64 %indvars.iv, 1
  %58 = load i32, ptr %13, align 8
  %59 = sext i32 %58 to i64
  %.not47 = icmp slt i64 %indvars.iv.next, %59
  br i1 %.not47, label %22, label %.loopexit, !llvm.loop !33

.loopexit:                                        ; preds = %57, %3, %51, %48
  %60 = phi i1 [ false, %51 ], [ false, %48 ], [ true, %3 ], [ true, %57 ]
  call void @llvm.lifetime.end.p0(i64 80, ptr nonnull %5) #16
  call void @llvm.lifetime.end.p0(i64 1, ptr nonnull %4) #16
  ret i1 %60
}